; ModuleID = '57/379.c'
source_filename = "57/379.c"
target datalayout = "e-m:e-p270:32:32-p271:32:32-p272:64:64-i64:64-f80:128-n8:16:32:64-S128"
target triple = "x86_64-pc-linux-gnu"

@.str = private unnamed_addr constant [3 x i8] c"%d\00", align 1
@.str.1 = private unnamed_addr constant [4 x i8] c"%s\0A\00", align 1
@.str.2 = private unnamed_addr constant [3 x i8] c"%s\00", align 1

; Function Attrs: noinline nounwind uwtable
define dso_local i32 @main() #0 {
  %1 = alloca i32, align 4
  %2 = alloca [32 x i8], align 16
  %3 = alloca [50 x [32 x i8]], align 16
  %4 = alloca i32, align 4
  %5 = alloca i32, align 4
  %6 = alloca i32, align 4
  %7 = alloca i32, align 4
  store i32 0, i32* %1, align 4
  %8 = call i32 (i8*, ...) @__isoc99_scanf(i8* getelementptr inbounds ([3 x i8], [3 x i8]* @.str, i64 0, i64 0), i32* %7)
  %9 = load i32, i32* %7, align 4
  %10 = add nsw i32 %9, 1
  store i32 %10, i32* %7, align 4
  store i32 0, i32* %5, align 4
  br label %11

11:                                               ; preds = %128, %0
  %12 = load i32, i32* %5, align 4
  %13 = load i32, i32* %7, align 4
  %14 = icmp slt i32 %12, %13
  br i1 %14, label %15, label %131

15:                                               ; preds = %11
  %16 = getelementptr inbounds [32 x i8], [32 x i8]* %2, i64 0, i64 0
  %17 = call i32 (i8*, ...) bitcast (i32 (...)* @gets to i32 (i8*, ...)*)(i8* %16)
  %18 = getelementptr inbounds [32 x i8], [32 x i8]* %2, i64 0, i64 0
  %19 = call i64 @strlen(i8* %18) #3
  %20 = trunc i64 %19 to i32
  store i32 %20, i32* %4, align 4
  %21 = load i32, i32* %4, align 4
  %22 = sub nsw i32 %21, 1
  %23 = sext i32 %22 to i64
  %24 = getelementptr inbounds [32 x i8], [32 x i8]* %2, i64 0, i64 %23
  %25 = load i8, i8* %24, align 1
  %26 = sext i8 %25 to i32
  %27 = icmp eq i32 %26, 114
  br i1 %27, label %28, label %45

28:                                               ; preds = %15
  %29 = load i32, i32* %4, align 4
  %30 = sub nsw i32 %29, 2
  %31 = sext i32 %30 to i64
  %32 = getelementptr inbounds [32 x i8], [32 x i8]* %2, i64 0, i64 %31
  %33 = load i8, i8* %32, align 1
  %34 = sext i8 %33 to i32
  %35 = icmp eq i32 %34, 101
  br i1 %35, label %36, label %45

36:                                               ; preds = %28
  %37 = load i32, i32* %4, align 4
  %38 = sub nsw i32 %37, 2
  %39 = sext i32 %38 to i64
  %40 = getelementptr inbounds [32 x i8], [32 x i8]* %2, i64 0, i64 %39
  store i8 0, i8* %40, align 1
  %41 = load i32, i32* %4, align 4
  %42 = sub nsw i32 %41, 1
  %43 = sext i32 %42 to i64
  %44 = getelementptr inbounds [32 x i8], [32 x i8]* %2, i64 0, i64 %43
  store i8 0, i8* %44, align 1
  br label %109

45:                                               ; preds = %28, %15
  %46 = load i32, i32* %4, align 4
  %47 = sub nsw i32 %46, 1
  %48 = sext i32 %47 to i64
  %49 = getelementptr inbounds [32 x i8], [32 x i8]* %2, i64 0, i64 %48
  %50 = load i8, i8* %49, align 1
  %51 = sext i8 %50 to i32
  %52 = icmp eq i32 %51, 103
  br i1 %52, label %53, label %82

53:                                               ; preds = %45
  %54 = load i32, i32* %4, align 4
  %55 = sub nsw i32 %54, 2
  %56 = sext i32 %55 to i64
  %57 = getelementptr inbounds [32 x i8], [32 x i8]* %2, i64 0, i64 %56
  %58 = load i8, i8* %57, align 1
  %59 = sext i8 %58 to i32
  %60 = icmp eq i32 %59, 110
  br i1 %60, label %61, label %82

61:                                               ; preds = %53
  %62 = load i32, i32* %4, align 4
  %63 = sub nsw i32 %62, 3
  %64 = sext i32 %63 to i64
  %65 = getelementptr inbounds [32 x i8], [32 x i8]* %2, i64 0, i64 %64
  %66 = load i8, i8* %65, align 1
  %67 = sext i8 %66 to i32
  %68 = icmp eq i32 %67, 105
  br i1 %68, label %69, label %82

69:                                               ; preds = %61
  %70 = load i32, i32* %4, align 4
  %71 = sub nsw i32 %70, 3
  %72 = sext i32 %71 to i64
  %73 = getelementptr inbounds [32 x i8], [32 x i8]* %2, i64 0, i64 %72
  store i8 0, i8* %73, align 1
  %74 = load i32, i32* %4, align 4
  %75 = sub nsw i32 %74, 2
  %76 = sext i32 %75 to i64
  %77 = getelementptr inbounds [32 x i8], [32 x i8]* %2, i64 0, i64 %76
  store i8 0, i8* %77, align 1
  %78 = load i32, i32* %4, align 4
  %79 = sub nsw i32 %78, 1
  %80 = sext i32 %79 to i64
  %81 = getelementptr inbounds [32 x i8], [32 x i8]* %2, i64 0, i64 %80
  store i8 0, i8* %81, align 1
  br label %108

82:                                               ; preds = %61, %53, %45
  %83 = load i32, i32* %4, align 4
  %84 = sub nsw i32 %83, 1
  %85 = sext i32 %84 to i64
  %86 = getelementptr inbounds [32 x i8], [32 x i8]* %2, i64 0, i64 %85
  %87 = load i8, i8* %86, align 1
  %88 = sext i8 %87 to i32
  %89 = icmp eq i32 %88, 121
  br i1 %89, label %90, label %107

90:                                               ; preds = %82
  %91 = load i32, i32* %4, align 4
  %92 = sub nsw i32 %91, 2
  %93 = sext i32 %92 to i64
  %94 = getelementptr inbounds [32 x i8], [32 x i8]* %2, i64 0, i64 %93
  %95 = load i8, i8* %94, align 1
  %96 = sext i8 %95 to i32
  %97 = icmp eq i32 %96, 108
  br i1 %97, label %98, label %107

98:                                               ; preds = %90
  %99 = load i32, i32* %4, align 4
  %100 = sub nsw i32 %99, 2
  %101 = sext i32 %100 to i64
  %102 = getelementptr inbounds [32 x i8], [32 x i8]* %2, i64 0, i64 %101
  store i8 0, i8* %102, align 1
  %103 = load i32, i32* %4, align 4
  %104 = sub nsw i32 %103, 1
  %105 = sext i32 %104 to i64
  %106 = getelementptr inbounds [32 x i8], [32 x i8]* %2, i64 0, i64 %105
  store i8 0, i8* %106, align 1
  br label %107

107:                                              ; preds = %98, %90, %82
  br label %108

108:                                              ; preds = %107, %69
  br label %109

109:                                              ; preds = %108, %36
  store i32 0, i32* %6, align 4
  br label %110

110:                                              ; preds = %124, %109
  %111 = load i32, i32* %6, align 4
  %112 = icmp slt i32 %111, 32
  br i1 %112, label %113, label %127

113:                                              ; preds = %110
  %114 = load i32, i32* %6, align 4
  %115 = sext i32 %114 to i64
  %116 = getelementptr inbounds [32 x i8], [32 x i8]* %2, i64 0, i64 %115
  %117 = load i8, i8* %116, align 1
  %118 = load i32, i32* %5, align 4
  %119 = sext i32 %118 to i64
  %120 = getelementptr inbounds [50 x [32 x i8]], [50 x [32 x i8]]* %3, i64 0, i64 %119
  %121 = load i32, i32* %6, align 4
  %122 = sext i32 %121 to i64
  %123 = getelementptr inbounds [32 x i8], [32 x i8]* %120, i64 0, i64 %122
  store i8 %117, i8* %123, align 1
  br label %124

124:                                              ; preds = %113
  %125 = load i32, i32* %6, align 4
  %126 = add nsw i32 %125, 1
  store i32 %126, i32* %6, align 4
  br label %110

127:                                              ; preds = %110
  br label %128

128:                                              ; preds = %127
  %129 = load i32, i32* %5, align 4
  %130 = add nsw i32 %129, 1
  store i32 %130, i32* %5, align 4
  br label %11

131:                                              ; preds = %11
  store i32 0, i32* %5, align 4
  br label %132

132:                                              ; preds = %143, %131
  %133 = load i32, i32* %5, align 4
  %134 = load i32, i32* %7, align 4
  %135 = sub nsw i32 %134, 1
  %136 = icmp slt i32 %133, %135
  br i1 %136, label %137, label %146

137:                                              ; preds = %132
  %138 = load i32, i32* %5, align 4
  %139 = sext i32 %138 to i64
  %140 = getelementptr inbounds [50 x [32 x i8]], [50 x [32 x i8]]* %3, i64 0, i64 %139
  %141 = getelementptr inbounds [32 x i8], [32 x i8]* %140, i64 0, i64 0
  %142 = call i32 (i8*, ...) @printf(i8* getelementptr inbounds ([4 x i8], [4 x i8]* @.str.1, i64 0, i64 0), i8* %141)
  br label %143

143:                                              ; preds = %137
  %144 = load i32, i32* %5, align 4
  %145 = add nsw i32 %144, 1
  store i32 %145, i32* %5, align 4
  br label %132

146:                                              ; preds = %132
  %147 = load i32, i32* %7, align 4
  %148 = sub nsw i32 %147, 1
  %149 = sext i32 %148 to i64
  %150 = getelementptr inbounds [50 x [32 x i8]], [50 x [32 x i8]]* %3, i64 0, i64 %149
  %151 = getelementptr inbounds [32 x i8], [32 x i8]* %150, i64 0, i64 0
  %152 = call i32 (i8*, ...) @printf(i8* getelementptr inbounds ([3 x i8], [3 x i8]* @.str.2, i64 0, i64 0), i8* %151)
  ret i32 0
}

declare dso_local i32 @__isoc99_scanf(i8*, ...) #1

declare dso_local i32 @gets(...) #1

; Function Attrs: nounwind readonly
declare dso_local i64 @strlen(i8*) #2

declare dso_local i32 @printf(i8*, ...) #1


!llvm.module.flags = !{!0}
!llvm.ident = !{!1}

!0 = !{i32 1, !"wchar_size", i32 4}
!1 = !{!"clang version 10.0.0-4ubuntu1 "}
